target datalayout = "e-m:e-p270:32:32-p271:32:32-p272:64:64-i64:64-i128:128-f80:128-n8:16:32:64-S128"
target triple = "x86_64-pc-linux-gnu"

%class.aiVector3t = type { double, double, double }
%"class.Assimp::IFC::Curve" = type { ptr, ptr, ptr }
%"class.Assimp::IFC::(anonymous namespace)::Line" = type { %"class.Assimp::IFC::Curve", %class.aiVector3t, %class.aiVector3t }

; Function Attrs: mustprogress nounwind uwtable
define linkonce_odr hidden void @_ZN10aiVector3tIdEC2Eddd(ptr noundef nonnull align 8 dereferenceable(24) %0, double noundef %1, double noundef %2, double noundef %3) unnamed_addr #2 comdat align 2 {
  %5 = alloca ptr, align 8
  %6 = alloca double, align 8
  %7 = alloca double, align 8
  %8 = alloca double, align 8
  store ptr %0, ptr %5, align 8
  store double %1, ptr %6, align 8
  store double %2, ptr %7, align 8
  store double %3, ptr %8, align 8
  %9 = load ptr, ptr %5, align 8
  %10 = getelementptr inbounds nuw %class.aiVector3t, ptr %9, i32 0, i32 0
  %11 = load double, ptr %6, align 8
  store double %11, ptr %10, align 8
  %12 = getelementptr inbounds nuw %class.aiVector3t, ptr %9, i32 0, i32 1
  %13 = load double, ptr %7, align 8
  store double %13, ptr %12, align 8
  %14 = getelementptr inbounds nuw %class.aiVector3t, ptr %9, i32 0, i32 2
  %15 = load double, ptr %8, align 8
  store double %15, ptr %14, align 8
  ret void
}

; Function Attrs: inlinehint mustprogress uwtable
define linkonce_odr hidden void @_ZplIdE10aiVector3tIT_ERKS2_S4_(ptr dead_on_unwind noalias writable sret(%class.aiVector3t) align 8 %0, ptr noundef nonnull align 8 dereferenceable(24) %1, ptr noundef nonnull align 8 dereferenceable(24) %2) #8 comdat {
  %4 = alloca ptr, align 8
  %5 = alloca ptr, align 8
  store ptr %1, ptr %4, align 8
  store ptr %2, ptr %5, align 8
  %6 = load ptr, ptr %4, align 8
  %7 = getelementptr inbounds nuw %class.aiVector3t, ptr %6, i32 0, i32 0
  %8 = load double, ptr %7, align 8
  %9 = load ptr, ptr %5, align 8
  %10 = getelementptr inbounds nuw %class.aiVector3t, ptr %9, i32 0, i32 0
  %11 = load double, ptr %10, align 8
  %12 = fadd double %8, %11
  %13 = load ptr, ptr %4, align 8
  %14 = getelementptr inbounds nuw %class.aiVector3t, ptr %13, i32 0, i32 1
  %15 = load double, ptr %14, align 8
  %16 = load ptr, ptr %5, align 8
  %17 = getelementptr inbounds nuw %class.aiVector3t, ptr %16, i32 0, i32 1
  %18 = load double, ptr %17, align 8
  %19 = fadd double %15, %18
  %20 = load ptr, ptr %4, align 8
  %21 = getelementptr inbounds nuw %class.aiVector3t, ptr %20, i32 0, i32 2
  %22 = load double, ptr %21, align 8
  %23 = load ptr, ptr %5, align 8
  %24 = getelementptr inbounds nuw %class.aiVector3t, ptr %23, i32 0, i32 2
  %25 = load double, ptr %24, align 8
  %26 = fadd double %22, %25
  call void @_ZN10aiVector3tIdEC2Eddd(ptr noundef nonnull align 8 dereferenceable(24) %0, double noundef %12, double noundef %19, double noundef %26)
  ret void
}

; Function Attrs: inlinehint mustprogress uwtable
define linkonce_odr hidden void @_ZmlIdE10aiVector3tIT_ES1_RKS2_(ptr dead_on_unwind noalias writable sret(%class.aiVector3t) align 8 %0, double noundef %1, ptr noundef nonnull align 8 dereferenceable(24) %2) #8 comdat {
  %4 = alloca double, align 8
  %5 = alloca ptr, align 8
  store double %1, ptr %4, align 8
  store ptr %2, ptr %5, align 8
  %6 = load double, ptr %4, align 8
  %7 = load ptr, ptr %5, align 8
  %8 = getelementptr inbounds nuw %class.aiVector3t, ptr %7, i32 0, i32 0
  %9 = load double, ptr %8, align 8
  %10 = fmul double %6, %9
  %11 = load double, ptr %4, align 8
  %12 = load ptr, ptr %5, align 8
  %13 = getelementptr inbounds nuw %class.aiVector3t, ptr %12, i32 0, i32 1
  %14 = load double, ptr %13, align 8
  %15 = fmul double %11, %14
  %16 = load double, ptr %4, align 8
  %17 = load ptr, ptr %5, align 8
  %18 = getelementptr inbounds nuw %class.aiVector3t, ptr %17, i32 0, i32 2
  %19 = load double, ptr %18, align 8
  %20 = fmul double %16, %19
  call void @_ZN10aiVector3tIdEC2Eddd(ptr noundef nonnull align 8 dereferenceable(24) %0, double noundef %10, double noundef %15, double noundef %20)
  ret void
}

; Function Attrs: mustprogress uwtable
define internal void @_ZNK6Assimp3IFC12_GLOBAL__N_14Line4EvalEd(ptr dead_on_unwind noalias writable sret(%class.aiVector3t) align 8 %0, ptr noundef nonnull align 8 dereferenceable(72) %1, double noundef %2) unnamed_addr #1 align 2 {
  %4 = alloca ptr, align 8
  %5 = alloca double, align 8
  %6 = alloca %class.aiVector3t, align 8
  store ptr %1, ptr %4, align 8
  store double %2, ptr %5, align 8
  %7 = load ptr, ptr %4, align 8
  %8 = getelementptr inbounds nuw %"class.Assimp::IFC::(anonymous namespace)::Line", ptr %7, i32 0, i32 1
  call void @llvm.lifetime.start.p0(i64 24, ptr %6) #19
  %9 = load double, ptr %5, align 8
  %10 = getelementptr inbounds nuw %"class.Assimp::IFC::(anonymous namespace)::Line", ptr %7, i32 0, i32 2
  call void @_ZmlIdE10aiVector3tIT_ES1_RKS2_(ptr dead_on_unwind writable sret(%class.aiVector3t) align 8 %6, double noundef %9, ptr noundef nonnull align 8 dereferenceable(24) %10)
  call void @_ZplIdE10aiVector3tIT_ERKS2_S4_(ptr dead_on_unwind writable sret(%class.aiVector3t) align 8 %0, ptr noundef nonnull align 8 dereferenceable(24) %8, ptr noundef nonnull align 8 dereferenceable(24) %6)
  call void @llvm.lifetime.end.p0(i64 24, ptr %6) #19
  ret void
}