; Function Attrs: mustprogress nofree norecurse nosync nounwind willreturn memory(argmem: readwrite, inaccessiblemem: readwrite) uwtable
define internal void @_ZNK6Assimp3IFC12_GLOBAL__N_14Line4EvalEd(ptr dead_on_unwind noalias writable writeonly sret(%class.aiVector3t) align 8 captures(none) initializes((0, 24)) %0, ptr noundef nonnull readonly align 8 captures(none) dereferenceable(72) %1, double noundef %2) unnamed_addr #26 align 2 {
  %4 = getelementptr inbounds nuw i8, ptr %1, i64 24
  %5 = getelementptr inbounds nuw i8, ptr %1, i64 48
  %6 = load double, ptr %5, align 8, !noalias !115
  %7 = fmul double %2, %6
  %8 = getelementptr inbounds nuw i8, ptr %1, i64 56
  %9 = load double, ptr %8, align 8, !noalias !115
  %10 = fmul double %2, %9
  %11 = getelementptr inbounds nuw i8, ptr %1, i64 64
  %12 = load double, ptr %11, align 8, !noalias !115
  %13 = fmul double %2, %12
  tail call void @llvm.experimental.noalias.scope.decl(metadata !118)
  %14 = load double, ptr %4, align 8, !noalias !118
  %15 = fadd double %7, %14
  %16 = getelementptr inbounds nuw i8, ptr %1, i64 32
  %17 = load double, ptr %16, align 8, !noalias !118
  %18 = fadd double %10, %17
  %19 = getelementptr inbounds nuw i8, ptr %1, i64 40
  %20 = load double, ptr %19, align 8, !noalias !118
  %21 = fadd double %13, %20
  store double %15, ptr %0, align 8, !alias.scope !118
  %22 = getelementptr inbounds nuw i8, ptr %0, i64 8
  store double %18, ptr %22, align 8, !alias.scope !118
  %23 = getelementptr inbounds nuw i8, ptr %0, i64 16
  store double %21, ptr %23, align 8, !alias.scope !118
  ret void
}